; Function Attrs: mustprogress uwtable
define void @_ZN6GLArea13sendCameraPosE7QString(ptr noundef nonnull align 8 dereferenceable(1676) %0, ptr nocapture noundef readonly %1) local_unnamed_addr #14 align 2 personality ptr @__gxx_personality_v0 {
  %3 = alloca %class.QString, align 8
  %4 = getelementptr inbounds i8, ptr %0, i64 112
  %5 = tail call { <2 x float>, float } @_ZNK3vcg4ViewIfE9ViewPointEv(ptr noundef nonnull align 4 dereferenceable(273) %4)
  %.fca.0.extract = extractvalue { <2 x float>, float } %5, 0
  %.fca.1.extract = extractvalue { <2 x float>, float } %5, 1
  %6 = load ptr, ptr %1, align 8
  store ptr %6, ptr %3, align 8
  %7 = load atomic i32, ptr %6 monotonic, align 4
  %8 = add i32 %7, -1
  %or.cond.not.i.i = icmp ult i32 %8, -2
  br i1 %or.cond.not.i.i, label %9, label %_ZN7QStringC2ERKS_.exit

9:                                                ; preds = %2
  %10 = atomicrmw add ptr %6, i32 1 seq_cst, align 4
  br label %_ZN7QStringC2ERKS_.exit

_ZN7QStringC2ERKS_.exit:                          ; preds = %2, %9
  invoke void @_ZN6GLArea17transmitCameraPosE7QStringN3vcg6Point3IfEE(ptr noundef nonnull align 8 dereferenceable(1676) %0, ptr noundef nonnull %3, <2 x float> %.fca.0.extract, float %.fca.1.extract)
          to label %11 unwind label %16

11:                                               ; preds = %_ZN7QStringC2ERKS_.exit
  %12 = load ptr, ptr %3, align 8
  %13 = load atomic i32, ptr %12 monotonic, align 4
  switch i32 %13, label %_ZN9QtPrivate8RefCount5derefEv.exit.i [
    i32 0, label %_ZN9QtPrivate8RefCount5derefEv.exit.thread2.i
    i32 -1, label %_ZN7QStringD2Ev.exit
  ]

_ZN9QtPrivate8RefCount5derefEv.exit.i:            ; preds = %11
  %14 = atomicrmw sub ptr %12, i32 1 seq_cst, align 4
  %.not.i = icmp eq i32 %14, 1
  br i1 %.not.i, label %_ZN9QtPrivate8RefCount5derefEv.exit._ZN9QtPrivate8RefCount5derefEv.exit.thread2_crit_edge.i, label %_ZN7QStringD2Ev.exit

_ZN9QtPrivate8RefCount5derefEv.exit._ZN9QtPrivate8RefCount5derefEv.exit.thread2_crit_edge.i: ; preds = %_ZN9QtPrivate8RefCount5derefEv.exit.i
  %.pre.i = load ptr, ptr %3, align 8
  br label %_ZN9QtPrivate8RefCount5derefEv.exit.thread2.i

_ZN9QtPrivate8RefCount5derefEv.exit.thread2.i:    ; preds = %_ZN9QtPrivate8RefCount5derefEv.exit._ZN9QtPrivate8RefCount5derefEv.exit.thread2_crit_edge.i, %11
  %15 = phi ptr [ %.pre.i, %_ZN9QtPrivate8RefCount5derefEv.exit._ZN9QtPrivate8RefCount5derefEv.exit.thread2_crit_edge.i ], [ %12, %11 ]
  call void @_ZN10QArrayData10deallocateEPS_mm(ptr noundef %15, i64 noundef 2, i64 noundef 8) #32
  br label %_ZN7QStringD2Ev.exit

_ZN7QStringD2Ev.exit:                             ; preds = %11, %_ZN9QtPrivate8RefCount5derefEv.exit.i, %_ZN9QtPrivate8RefCount5derefEv.exit.thread2.i
  ret void

16:                                               ; preds = %_ZN7QStringC2ERKS_.exit
  %17 = landingpad { ptr, i32 }
          cleanup
  call void @_ZN7QStringD2Ev(ptr noundef nonnull align 8 dereferenceable(8) %3) #32
  resume { ptr, i32 } %17
}